target datalayout = "e-m:e-p270:32:32-p271:32:32-p272:64:64-i64:64-i128:128-f80:128-n8:16:32:64-S128"
target triple = "x86_64-unknown-linux-gnu"

%struct.DeviceClass = type { %struct.ObjectClass, [1 x i64], ptr, ptr, ptr, i8, i8, ptr, ptr, ptr, ptr, ptr }
%struct.ObjectClass = type { ptr, ptr, [4 x ptr], [4 x ptr], ptr, ptr }
%struct.ResettableClass = type { %struct.InterfaceClass, %struct.ResettablePhases, ptr, ptr, ptr }
%struct.InterfaceClass = type { %struct.ObjectClass, ptr, ptr }
%struct.ResettablePhases = type { ptr, ptr, ptr }

@.str.19 = private unnamed_addr constant [7 x i8] c"device\00", align 1
@.str.20 = private unnamed_addr constant [101 x i8] c"/home/dtcxzyw/WorkSpace/Projects/compilers/llvm-opt-benchmark/bench/qemu/qemu/include/hw/qdev-core.h\00", align 1
@__func__.DEVICE_CLASS = private unnamed_addr constant [13 x i8] c"DEVICE_CLASS\00", align 1
@.str.28 = private unnamed_addr constant [11 x i8] c"resettable\00", align 1
@.str.29 = private unnamed_addr constant [102 x i8] c"/home/dtcxzyw/WorkSpace/Projects/compilers/llvm-opt-benchmark/bench/qemu/qemu/include/hw/resettable.h\00", align 1
@__func__.RESETTABLE_CLASS = private unnamed_addr constant [17 x i8] c"RESETTABLE_CLASS\00", align 1

; Function Attrs: nounwind sspstrong uwtable
define internal ptr @RESETTABLE_CLASS(ptr noundef %klass) #0 {
entry:
  %klass.addr = alloca ptr, align 8
  store ptr %klass, ptr %klass.addr, align 8
  %0 = load ptr, ptr %klass.addr, align 8
  %call = call ptr @object_class_dynamic_cast_assert(ptr noundef %0, ptr noundef @.str.28, ptr noundef @.str.29, i32 noundef 22, ptr noundef @__func__.RESETTABLE_CLASS)
  ret ptr %call
}

; Function Attrs: nounwind sspstrong uwtable
define internal ptr @DEVICE_CLASS(ptr noundef %klass) #0 {
entry:
  %klass.addr = alloca ptr, align 8
  store ptr %klass, ptr %klass.addr, align 8
  %0 = load ptr, ptr %klass.addr, align 8
  %call = call ptr @object_class_dynamic_cast_assert(ptr noundef %0, ptr noundef @.str.19, ptr noundef @.str.20, i32 noundef 77, ptr noundef @__func__.DEVICE_CLASS)
  ret ptr %call
}

; Function Attrs: nounwind sspstrong uwtable
define internal void @riscv_aclint_swi_class_init(ptr noundef %klass, ptr noundef %data) #0 {
entry:
  %klass.addr = alloca ptr, align 8
  %data.addr = alloca ptr, align 8
  %dc = alloca ptr, align 8
  %rc = alloca ptr, align 8
  store ptr %klass, ptr %klass.addr, align 8
  store ptr %data, ptr %data.addr, align 8
  %0 = load ptr, ptr %klass.addr, align 8
  %call = call ptr @DEVICE_CLASS(ptr noundef %0)
  store ptr %call, ptr %dc, align 8
  %1 = load ptr, ptr %dc, align 8
  %realize = getelementptr inbounds %struct.DeviceClass, ptr %1, i32 0, i32 8
  store ptr @riscv_aclint_swi_realize, ptr %realize, align 8
  %2 = load ptr, ptr %dc, align 8
  call void @device_class_set_props(ptr noundef %2, ptr noundef @riscv_aclint_swi_properties)
  %3 = load ptr, ptr %klass.addr, align 8
  %call1 = call ptr @RESETTABLE_CLASS(ptr noundef %3)
  store ptr %call1, ptr %rc, align 8
  %4 = load ptr, ptr %rc, align 8
  %phases = getelementptr inbounds %struct.ResettableClass, ptr %4, i32 0, i32 1
  %enter = getelementptr inbounds %struct.ResettablePhases, ptr %phases, i32 0, i32 0
  store ptr @riscv_aclint_swi_reset_enter, ptr %enter, align 8
  ret void
}