; Function Attrs: nounwind sspstrong uwtable
define internal void @riscv_aclint_swi_class_init(ptr noundef %klass, ptr readnone captures(none) %data) #0 {
entry:
  %call.i = tail call ptr @object_class_dynamic_cast_assert(ptr noundef %klass, ptr noundef nonnull @.str.19, ptr noundef nonnull @.str.20, i32 noundef 77, ptr noundef nonnull @__func__.DEVICE_CLASS) #6
  %realize = getelementptr inbounds nuw i8, ptr %call.i, i64 144
  store ptr @riscv_aclint_swi_realize, ptr %realize, align 8
  tail call void @device_class_set_props(ptr noundef %call.i, ptr noundef nonnull @riscv_aclint_swi_properties) #6
  %call.i3 = tail call ptr @object_class_dynamic_cast_assert(ptr noundef %klass, ptr noundef nonnull @.str.28, ptr noundef nonnull @.str.29, i32 noundef 22, ptr noundef nonnull @__func__.RESETTABLE_CLASS) #6
  %phases = getelementptr inbounds nuw i8, ptr %call.i3, i64 112
  store ptr @riscv_aclint_swi_reset_enter, ptr %phases, align 8
  ret void
}